target datalayout = "e-m:e-p270:32:32-p271:32:32-p272:64:64-i64:64-i128:128-f80:128-n8:16:32:64-S128"
target triple = "x86_64-pc-linux-gnu"

%struct.cbs_st = type { ptr, i64 }

@.str.1 = private unnamed_addr constant [6 x i8] c"PKCS7\00", align 1

; Function Attrs: nounwind uwtable
define hidden i32 @PKCS7_get_PEM_CRLs(ptr noundef %0, ptr noundef %1) #0 {
  %3 = alloca i32, align 4
  %4 = alloca ptr, align 8
  %5 = alloca ptr, align 8
  %6 = alloca ptr, align 8
  %7 = alloca i64, align 8
  %8 = alloca i32, align 4
  %9 = alloca i32, align 4
  %10 = alloca %struct.cbs_st, align 8
  store ptr %0, ptr %4, align 8, !tbaa !26
  store ptr %1, ptr %5, align 8, !tbaa !32
  call void @llvm.lifetime.start.p0(i64 8, ptr %6) #4
  call void @llvm.lifetime.start.p0(i64 8, ptr %7) #4
  call void @llvm.lifetime.start.p0(i64 4, ptr %8) #4
  %11 = load ptr, ptr %5, align 8, !tbaa !32
  %12 = call i32 @PEM_bytes_read_bio(ptr noundef %6, ptr noundef %7, ptr noundef null, ptr noundef @.str.1, ptr noundef %11, ptr noundef null, ptr noundef null)
  %13 = icmp ne i32 %12, 0
  br i1 %13, label %15, label %14

14:                                               ; preds = %2
  store i32 0, ptr %3, align 4
  store i32 1, ptr %9, align 4
  br label %22

15:                                               ; preds = %2
  call void @llvm.lifetime.start.p0(i64 16, ptr %10) #4
  %16 = load ptr, ptr %6, align 8, !tbaa !13
  %17 = load i64, ptr %7, align 8, !tbaa !17
  call void @CBS_init(ptr noundef %10, ptr noundef %16, i64 noundef %17)
  %18 = load ptr, ptr %4, align 8, !tbaa !26
  %19 = call i32 @PKCS7_get_CRLs(ptr noundef %18, ptr noundef %10)
  store i32 %19, ptr %8, align 4, !tbaa !15
  %20 = load ptr, ptr %6, align 8, !tbaa !13
  call void @free(ptr noundef %20) #4
  %21 = load i32, ptr %8, align 4, !tbaa !15
  store i32 %21, ptr %3, align 4
  store i32 1, ptr %9, align 4
  call void @llvm.lifetime.end.p0(i64 16, ptr %10) #4
  br label %22

22:                                               ; preds = %15, %14
  call void @llvm.lifetime.end.p0(i64 4, ptr %8) #4
  call void @llvm.lifetime.end.p0(i64 8, ptr %7) #4
  call void @llvm.lifetime.end.p0(i64 8, ptr %6) #4
  %23 = load i32, ptr %3, align 4
  ret i32 %23
}